target datalayout = "e-m:e-p270:32:32-p271:32:32-p272:64:64-i64:64-i128:128-f80:128-n8:16:32:64-S128"
target triple = "x86_64-pc-linux-gnu"

%struct.lua_TValue = type { %union.Value, [1 x i32], i32 }
%union.Value = type { ptr }
%struct.lua_State = type { i8, i8, i8, i8, i8, i8, i8, ptr, ptr, ptr, ptr, ptr, ptr, ptr, ptr, i32, i32, i16, i16, i32, ptr, ptr, ptr, ptr, ptr }
%struct.GCheader = type { i8, i8, i8 }
%struct.global_State = type { %struct.stringtable, ptr, ptr, i8, i8, ptr, ptr, ptr, i64, i64, i32, i32, i32, [40 x ptr], [40 x ptr], ptr, ptr, ptr, [256 x i64], ptr, %struct.UpVal, [11 x ptr], [11 x ptr], [21 x ptr], %struct.lua_TValue, %struct.lua_TValue, i32, ptr, i64, [4 x i64], %struct.lua_Callbacks, %struct.lua_ExecutionCallbacks, [128 x ptr], [128 x ptr], [128 x ptr], %struct.GCStats }
%struct.stringtable = type { ptr, i32, i32 }
%struct.UpVal = type { i8, i8, i8, i8, ptr, %union.anon.3 }
%union.anon.3 = type { %struct.anon.4 }
%struct.anon.4 = type { ptr, ptr, ptr }
%struct.lua_Callbacks = type { ptr, ptr, ptr, ptr, ptr, ptr, ptr, ptr, ptr, ptr }
%struct.lua_ExecutionCallbacks = type { ptr, ptr, ptr, ptr, ptr, ptr, ptr }
%struct.GCStats = type { [32 x i32], i32, i32, i64, i64, i64, double, double, double }
%struct.Closure = type { i8, i8, i8, i8, i8, i8, i8, ptr, ptr, %union.anon.0 }
%union.anon.0 = type { %struct.anon }
%struct.anon = type { ptr, ptr, ptr, [1 x %struct.lua_TValue] }
%struct.anon.1 = type { ptr, [1 x %struct.lua_TValue] }

@luaO_nilobject_ = external hidden global %struct.lua_TValue, align 8

; Function Attrs: alwaysinline mustprogress uwtable
define internal noundef ptr @_ZL10index2addrP9lua_Statei(ptr noundef %0, i32 noundef %1) #2 {
  %3 = alloca ptr, align 8
  %4 = alloca ptr, align 8
  %5 = alloca i32, align 4
  %6 = alloca ptr, align 8
  %7 = alloca i32, align 4
  store ptr %0, ptr %4, align 8, !tbaa !4
  store i32 %1, ptr %5, align 4, !tbaa !9
  %8 = load i32, ptr %5, align 4, !tbaa !9
  %9 = icmp sgt i32 %8, 0
  br i1 %9, label %10, label %27

10:                                               ; preds = %2
  call void @llvm.lifetime.start.p0(i64 8, ptr %6) #11
  %11 = load ptr, ptr %4, align 8, !tbaa !4
  %12 = getelementptr inbounds nuw %struct.lua_State, ptr %11, i32 0, i32 8
  %13 = load ptr, ptr %12, align 8, !tbaa !13
  %14 = load i32, ptr %5, align 4, !tbaa !9
  %15 = sub nsw i32 %14, 1
  %16 = sext i32 %15 to i64
  %17 = getelementptr inbounds %struct.lua_TValue, ptr %13, i64 %16
  store ptr %17, ptr %6, align 8, !tbaa !11
  %18 = load ptr, ptr %6, align 8, !tbaa !11
  %19 = load ptr, ptr %4, align 8, !tbaa !4
  %20 = getelementptr inbounds nuw %struct.lua_State, ptr %19, i32 0, i32 7
  %21 = load ptr, ptr %20, align 8, !tbaa !23
  %22 = icmp uge ptr %18, %21
  br i1 %22, label %23, label %24

23:                                               ; preds = %10
  store ptr @luaO_nilobject_, ptr %3, align 8
  store i32 1, ptr %7, align 4
  br label %26

24:                                               ; preds = %10
  %25 = load ptr, ptr %6, align 8, !tbaa !11
  store ptr %25, ptr %3, align 8
  store i32 1, ptr %7, align 4
  br label %26

26:                                               ; preds = %24, %23
  call void @llvm.lifetime.end.p0(i64 8, ptr %6) #11
  br label %41

27:                                               ; preds = %2
  %28 = load i32, ptr %5, align 4, !tbaa !9
  %29 = icmp sgt i32 %28, -10000
  br i1 %29, label %30, label %37

30:                                               ; preds = %27
  %31 = load ptr, ptr %4, align 8, !tbaa !4
  %32 = getelementptr inbounds nuw %struct.lua_State, ptr %31, i32 0, i32 7
  %33 = load ptr, ptr %32, align 8, !tbaa !23
  %34 = load i32, ptr %5, align 4, !tbaa !9
  %35 = sext i32 %34 to i64
  %36 = getelementptr inbounds %struct.lua_TValue, ptr %33, i64 %35
  store ptr %36, ptr %3, align 8
  br label %41

37:                                               ; preds = %27
  %38 = load ptr, ptr %4, align 8, !tbaa !4
  %39 = load i32, ptr %5, align 4, !tbaa !9
  %40 = call noundef ptr @_ZL11pseudo2addrP9lua_Statei(ptr noundef %38, i32 noundef %39)
  store ptr %40, ptr %3, align 8
  br label %41

41:                                               ; preds = %37, %30, %26
  %42 = load ptr, ptr %3, align 8
  ret ptr %42
}

; Function Attrs: mustprogress uwtable
define dso_local void @_Z17lua_clonefunctionP9lua_Statei(ptr noundef %0, i32 noundef %1) #0 {
  %3 = alloca ptr, align 8
  %4 = alloca i32, align 4
  %5 = alloca ptr, align 8
  %6 = alloca ptr, align 8
  %7 = alloca ptr, align 8
  %8 = alloca i32, align 4
  %9 = alloca ptr, align 8
  %10 = alloca ptr, align 8
  %11 = alloca ptr, align 8
  store ptr %0, ptr %3, align 8, !tbaa !4
  store i32 %1, ptr %4, align 4, !tbaa !9
  %12 = load ptr, ptr %3, align 8, !tbaa !4
  %13 = getelementptr inbounds nuw %struct.lua_State, ptr %12, i32 0, i32 9
  %14 = load ptr, ptr %13, align 8, !tbaa !33
  %15 = getelementptr inbounds nuw %struct.global_State, ptr %14, i32 0, i32 9
  %16 = load i64, ptr %15, align 8, !tbaa !34
  %17 = load ptr, ptr %3, align 8, !tbaa !4
  %18 = getelementptr inbounds nuw %struct.lua_State, ptr %17, i32 0, i32 9
  %19 = load ptr, ptr %18, align 8, !tbaa !33
  %20 = getelementptr inbounds nuw %struct.global_State, ptr %19, i32 0, i32 8
  %21 = load i64, ptr %20, align 8, !tbaa !48
  %22 = icmp uge i64 %16, %21
  br i1 %22, label %23, label %26

23:                                               ; preds = %2
  %24 = load ptr, ptr %3, align 8, !tbaa !4
  %25 = call noundef i64 @_Z9luaC_stepP9lua_Stateb(ptr noundef %24, i1 noundef zeroext true)
  br label %27

26:                                               ; preds = %2
  br label %27

27:                                               ; preds = %26, %23
  %28 = load ptr, ptr %3, align 8, !tbaa !4
  %29 = getelementptr inbounds %struct.lua_State, ptr %28, i64 0
  %30 = getelementptr inbounds nuw %struct.GCheader, ptr %29, i32 0, i32 1
  %31 = load i8, ptr %30, align 1, !tbaa !25
  %32 = zext i8 %31 to i32
  %33 = and i32 %32, 4
  %34 = icmp ne i32 %33, 0
  br i1 %34, label %35, label %41

35:                                               ; preds = %27
  %36 = load ptr, ptr %3, align 8, !tbaa !4
  %37 = load ptr, ptr %3, align 8, !tbaa !4
  %38 = getelementptr inbounds %struct.lua_State, ptr %37, i64 0
  %39 = load ptr, ptr %3, align 8, !tbaa !4
  %40 = getelementptr inbounds nuw %struct.lua_State, ptr %39, i32 0, i32 22
  call void @_Z16luaC_barrierbackP9lua_StateP8GCObjectPS2_(ptr noundef %36, ptr noundef %38, ptr noundef %40)
  br label %41

41:                                               ; preds = %35, %27
  call void @llvm.lifetime.start.p0(i64 8, ptr %5) #11
  %42 = load ptr, ptr %3, align 8, !tbaa !4
  %43 = load i32, ptr %4, align 4, !tbaa !9
  %44 = call noundef ptr @_ZL10index2addrP9lua_Statei(ptr noundef %42, i32 noundef %43)
  store ptr %44, ptr %5, align 8, !tbaa !11
  call void @llvm.lifetime.start.p0(i64 8, ptr %6) #11
  %45 = load ptr, ptr %5, align 8, !tbaa !11
  %46 = getelementptr inbounds nuw %struct.lua_TValue, ptr %45, i32 0, i32 0
  %47 = load ptr, ptr %46, align 8, !tbaa !25
  store ptr %47, ptr %6, align 8, !tbaa !57
  call void @llvm.lifetime.start.p0(i64 8, ptr %7) #11
  %48 = load ptr, ptr %3, align 8, !tbaa !4
  %49 = load ptr, ptr %6, align 8, !tbaa !57
  %50 = getelementptr inbounds nuw %struct.Closure, ptr %49, i32 0, i32 4
  %51 = load i8, ptr %50, align 4, !tbaa !127
  %52 = zext i8 %51 to i32
  %53 = load ptr, ptr %3, align 8, !tbaa !4
  %54 = getelementptr inbounds nuw %struct.lua_State, ptr %53, i32 0, i32 20
  %55 = load ptr, ptr %54, align 8, !tbaa !61
  %56 = load ptr, ptr %6, align 8, !tbaa !57
  %57 = getelementptr inbounds nuw %struct.Closure, ptr %56, i32 0, i32 9
  %58 = getelementptr inbounds nuw %struct.anon.1, ptr %57, i32 0, i32 0
  %59 = load ptr, ptr %58, align 8, !tbaa !25
  %60 = call noundef ptr @_Z16luaF_newLclosureP9lua_StateiP8LuaTableP5Proto(ptr noundef %48, i32 noundef %52, ptr noundef %55, ptr noundef %59)
  store ptr %60, ptr %7, align 8, !tbaa !57
  call void @llvm.lifetime.start.p0(i64 4, ptr %8) #11
  store i32 0, ptr %8, align 4, !tbaa !9
  br label %61

61:                                               ; preds = %84, %41
  %62 = load i32, ptr %8, align 4, !tbaa !9
  %63 = load ptr, ptr %6, align 8, !tbaa !57
  %64 = getelementptr inbounds nuw %struct.Closure, ptr %63, i32 0, i32 4
  %65 = load i8, ptr %64, align 4, !tbaa !127
  %66 = zext i8 %65 to i32
  %67 = icmp slt i32 %62, %66
  br i1 %67, label %69, label %68

68:                                               ; preds = %61
  call void @llvm.lifetime.end.p0(i64 4, ptr %8) #11
  br label %87

69:                                               ; preds = %61
  call void @llvm.lifetime.start.p0(i64 8, ptr %9) #11
  %70 = load ptr, ptr %6, align 8, !tbaa !57
  %71 = getelementptr inbounds nuw %struct.Closure, ptr %70, i32 0, i32 9
  %72 = getelementptr inbounds nuw %struct.anon.1, ptr %71, i32 0, i32 1
  %73 = load i32, ptr %8, align 4, !tbaa !9
  %74 = sext i32 %73 to i64
  %75 = getelementptr inbounds [1 x %struct.lua_TValue], ptr %72, i64 0, i64 %74
  store ptr %75, ptr %9, align 8, !tbaa !11
  call void @llvm.lifetime.start.p0(i64 8, ptr %10) #11
  %76 = load ptr, ptr %7, align 8, !tbaa !57
  %77 = getelementptr inbounds nuw %struct.Closure, ptr %76, i32 0, i32 9
  %78 = getelementptr inbounds nuw %struct.anon.1, ptr %77, i32 0, i32 1
  %79 = load i32, ptr %8, align 4, !tbaa !9
  %80 = sext i32 %79 to i64
  %81 = getelementptr inbounds [1 x %struct.lua_TValue], ptr %78, i64 0, i64 %80
  store ptr %81, ptr %10, align 8, !tbaa !11
  %82 = load ptr, ptr %9, align 8, !tbaa !11
  %83 = load ptr, ptr %10, align 8, !tbaa !11
  call void @llvm.memcpy.p0.p0.i64(ptr align 8 %83, ptr align 8 %82, i64 16, i1 false), !tbaa.struct !24
  call void @llvm.lifetime.end.p0(i64 8, ptr %10) #11
  call void @llvm.lifetime.end.p0(i64 8, ptr %9) #11
  br label %84

84:                                               ; preds = %69
  %85 = load i32, ptr %8, align 4, !tbaa !9
  %86 = add nsw i32 %85, 1
  store i32 %86, ptr %8, align 4, !tbaa !9
  br label %61, !llvm.loop !139

87:                                               ; preds = %68
  call void @llvm.lifetime.start.p0(i64 8, ptr %11) #11
  %88 = load ptr, ptr %3, align 8, !tbaa !4
  %89 = getelementptr inbounds nuw %struct.lua_State, ptr %88, i32 0, i32 7
  %90 = load ptr, ptr %89, align 8, !tbaa !23
  store ptr %90, ptr %11, align 8, !tbaa !11
  %91 = load ptr, ptr %7, align 8, !tbaa !57
  %92 = load ptr, ptr %11, align 8, !tbaa !11
  %93 = getelementptr inbounds nuw %struct.lua_TValue, ptr %92, i32 0, i32 0
  store ptr %91, ptr %93, align 8, !tbaa !25
  %94 = load ptr, ptr %11, align 8, !tbaa !11
  %95 = getelementptr inbounds nuw %struct.lua_TValue, ptr %94, i32 0, i32 2
  store i32 7, ptr %95, align 4, !tbaa !49
  call void @llvm.lifetime.end.p0(i64 8, ptr %11) #11
  %96 = load ptr, ptr %3, align 8, !tbaa !4
  %97 = getelementptr inbounds nuw %struct.lua_State, ptr %96, i32 0, i32 7
  %98 = load ptr, ptr %97, align 8, !tbaa !23
  %99 = getelementptr inbounds nuw %struct.lua_TValue, ptr %98, i32 1
  store ptr %99, ptr %97, align 8, !tbaa !23
  call void @llvm.lifetime.end.p0(i64 8, ptr %7) #11
  call void @llvm.lifetime.end.p0(i64 8, ptr %6) #11
  call void @llvm.lifetime.end.p0(i64 8, ptr %5) #11
  ret void
}