; Function Attrs: mustprogress uwtable
define dso_local void @_Z17lua_clonefunctionP9lua_Statei(ptr noundef %0, i32 noundef %1) local_unnamed_addr #3 {
  %3 = getelementptr inbounds nuw i8, ptr %0, i64 24
  %4 = load ptr, ptr %3, align 8, !tbaa !30
  %5 = getelementptr inbounds nuw i8, ptr %4, i64 72
  %6 = load i64, ptr %5, align 8, !tbaa !31
  %7 = getelementptr inbounds nuw i8, ptr %4, i64 64
  %8 = load i64, ptr %7, align 8, !tbaa !46
  %.not = icmp ult i64 %6, %8
  br i1 %.not, label %11, label %9

9:                                                ; preds = %2
  %10 = tail call noundef i64 @_Z9luaC_stepP9lua_Stateb(ptr noundef nonnull %0, i1 noundef zeroext true)
  br label %11

11:                                               ; preds = %2, %9
  %12 = getelementptr inbounds nuw i8, ptr %0, i64 1
  %13 = load i8, ptr %12, align 1, !tbaa !21
  %14 = and i8 %13, 4
  %.not27 = icmp eq i8 %14, 0
  br i1 %.not27, label %17, label %15

15:                                               ; preds = %11
  %16 = getelementptr inbounds nuw i8, ptr %0, i64 104
  tail call void @_Z16luaC_barrierbackP9lua_StateP8GCObjectPS2_(ptr noundef nonnull %0, ptr noundef nonnull %0, ptr noundef nonnull %16)
  br label %17

17:                                               ; preds = %15, %11
  %18 = icmp sgt i32 %1, 0
  br i1 %18, label %19, label %27

19:                                               ; preds = %17
  %20 = getelementptr inbounds nuw i8, ptr %0, i64 16
  %21 = load ptr, ptr %20, align 8, !tbaa !4
  %22 = zext nneg i32 %1 to i64
  %23 = getelementptr %struct.lua_TValue, ptr %21, i64 %22
  %24 = getelementptr i8, ptr %23, i64 -16
  %25 = getelementptr inbounds nuw i8, ptr %0, i64 8
  %26 = load ptr, ptr %25, align 8, !tbaa !19
  %.not.i = icmp ult ptr %24, %26
  %.luaO_nilobject_.i = select i1 %.not.i, ptr %24, ptr @luaO_nilobject_
  br label %_ZL10index2addrP9lua_Statei.exit

27:                                               ; preds = %17
  %28 = icmp sgt i32 %1, -10000
  br i1 %28, label %29, label %34

29:                                               ; preds = %27
  %30 = getelementptr inbounds nuw i8, ptr %0, i64 8
  %31 = load ptr, ptr %30, align 8, !tbaa !19
  %32 = sext i32 %1 to i64
  %33 = getelementptr inbounds %struct.lua_TValue, ptr %31, i64 %32
  br label %_ZL10index2addrP9lua_Statei.exit

34:                                               ; preds = %27
  %35 = tail call fastcc noundef ptr @_ZL11pseudo2addrP9lua_Statei(ptr noundef nonnull %0, i32 noundef %1)
  br label %_ZL10index2addrP9lua_Statei.exit

_ZL10index2addrP9lua_Statei.exit:                 ; preds = %19, %29, %34
  %.1.i = phi ptr [ %.luaO_nilobject_.i, %19 ], [ %33, %29 ], [ %35, %34 ]
  %36 = load ptr, ptr %.1.i, align 8, !tbaa !21
  %37 = getelementptr inbounds nuw i8, ptr %36, i64 4
  %38 = load i8, ptr %37, align 4, !tbaa !101
  %39 = zext i8 %38 to i32
  %40 = getelementptr inbounds nuw i8, ptr %0, i64 88
  %41 = load ptr, ptr %40, align 8, !tbaa !56
  %42 = getelementptr inbounds nuw i8, ptr %36, i64 24
  %43 = load ptr, ptr %42, align 8, !tbaa !21
  %44 = tail call noundef ptr @_Z16luaF_newLclosureP9lua_StateiP8LuaTableP5Proto(ptr noundef nonnull %0, i32 noundef %39, ptr noundef %41, ptr noundef %43)
  %45 = load i8, ptr %37, align 4, !tbaa !101
  %.not29 = icmp eq i8 %45, 0
  br i1 %.not29, label %._crit_edge, label %.lr.ph

.lr.ph:                                           ; preds = %_ZL10index2addrP9lua_Statei.exit
  %46 = getelementptr inbounds nuw i8, ptr %36, i64 32
  %47 = getelementptr inbounds nuw i8, ptr %44, i64 32
  br label %53

._crit_edge:                                      ; preds = %53, %_ZL10index2addrP9lua_Statei.exit
  %48 = getelementptr inbounds nuw i8, ptr %0, i64 8
  %49 = load ptr, ptr %48, align 8, !tbaa !19
  store ptr %44, ptr %49, align 8, !tbaa !21
  %50 = getelementptr inbounds nuw i8, ptr %49, i64 12
  store i32 7, ptr %50, align 4, !tbaa !47
  %51 = load ptr, ptr %48, align 8, !tbaa !19
  %52 = getelementptr inbounds nuw i8, ptr %51, i64 16
  store ptr %52, ptr %48, align 8, !tbaa !19
  ret void

53:                                               ; preds = %.lr.ph, %53
  %indvars.iv = phi i64 [ 0, %.lr.ph ], [ %indvars.iv.next, %53 ]
  %54 = getelementptr inbounds nuw [1 x %struct.lua_TValue], ptr %46, i64 0, i64 %indvars.iv
  %55 = getelementptr inbounds nuw [1 x %struct.lua_TValue], ptr %47, i64 0, i64 %indvars.iv
  tail call void @llvm.memcpy.p0.p0.i64(ptr noundef nonnull align 8 dereferenceable(16) %55, ptr noundef nonnull align 8 dereferenceable(16) %54, i64 16, i1 false), !tbaa.struct !20
  %indvars.iv.next = add nuw nsw i64 %indvars.iv, 1
  %56 = load i8, ptr %37, align 4, !tbaa !101
  %57 = zext i8 %56 to i64
  %58 = icmp samesign ult i64 %indvars.iv.next, %57
  br i1 %58, label %53, label %._crit_edge, !llvm.loop !113
}